target datalayout = "e-m:e-p270:32:32-p271:32:32-p272:64:64-i64:64-i128:128-f80:128-n8:16:32:64-S128"
target triple = "x86_64-pc-linux-gnu"

%"struct.xgboost::DeviceOrd" = type { i16, i16 }
%"class.xgboost::obj::QuantileRegression" = type { %"class.xgboost::ObjFunction", %"struct.xgboost::common::QuantileLossParam", %"class.xgboost::HostDeviceVector" }
%"class.xgboost::ObjFunction" = type { %"struct.xgboost::Configurable", ptr }
%"struct.xgboost::Configurable" = type { ptr }
%"struct.xgboost::common::QuantileLossParam" = type { %"struct.xgboost::XGBoostParameter", %"class.xgboost::common::ParamFloatArray" }
%"struct.xgboost::XGBoostParameter" = type { i8 }
%"class.xgboost::common::ParamFloatArray" = type { %"class.std::vector.22" }
%"class.std::vector.22" = type { %"struct.std::_Vector_base.23" }
%"struct.std::_Vector_base.23" = type { %"struct.std::_Vector_base<float, std::allocator<float>>::_Vector_impl" }
%"struct.std::_Vector_base<float, std::allocator<float>>::_Vector_impl" = type { %"struct.std::_Vector_base<float, std::allocator<float>>::_Vector_impl_data" }
%"struct.std::_Vector_base<float, std::allocator<float>>::_Vector_impl_data" = type { ptr, ptr, ptr }
%"class.xgboost::HostDeviceVector" = type { ptr }

@_ZTVN7xgboost11ObjFunctionE = external unnamed_addr constant { [17 x ptr] }, align 8
@_ZTVN7xgboost12ConfigurableE = linkonce_odr unnamed_addr constant { [6 x ptr] } { [6 x ptr] [ptr null, ptr @_ZTIN7xgboost12ConfigurableE, ptr @_ZN7xgboost12ConfigurableD2Ev, ptr @_ZN7xgboost12ConfigurableD0Ev, ptr @__cxa_pure_virtual, ptr @__cxa_pure_virtual] }, comdat, align 8

; Function Attrs: mustprogress nounwind uwtable
define linkonce_odr void @_ZNSt15__new_allocatorIfE10deallocateEPfm(ptr noundef nonnull align 1 dereferenceable(1) %0, ptr noundef %1, i64 noundef %2) #4 comdat align 2 {
  %4 = alloca ptr, align 8
  %5 = alloca ptr, align 8
  %6 = alloca i64, align 8
  store ptr %0, ptr %4, align 8, !tbaa !283
  store ptr %1, ptr %5, align 8, !tbaa !250
  store i64 %2, ptr %6, align 8, !tbaa !34
  %7 = load ptr, ptr %5, align 8, !tbaa !250
  %8 = load i64, ptr %6, align 8, !tbaa !34
  %9 = mul i64 %8, 4
  call void @_ZdlPvm(ptr noundef %7, i64 noundef %9) #32
  ret void
}

; Function Attrs: mustprogress nounwind uwtable
define linkonce_odr void @_ZNSt15__new_allocatorIfEC2Ev(ptr noundef nonnull align 1 dereferenceable(1) %0) unnamed_addr #4 comdat align 2 {
  %2 = alloca ptr, align 8
  store ptr %0, ptr %2, align 8, !tbaa !283
  ret void
}

; Function Attrs: mustprogress uwtable
define linkonce_odr void @_ZNSt16allocator_traitsISaIfEE10deallocateERS0_Pfm(ptr noundef nonnull align 1 dereferenceable(1) %0, ptr noundef %1, i64 noundef %2) #7 comdat align 2 {
  %4 = alloca ptr, align 8
  %5 = alloca ptr, align 8
  %6 = alloca i64, align 8
  store ptr %0, ptr %4, align 8, !tbaa !290
  store ptr %1, ptr %5, align 8, !tbaa !250
  store i64 %2, ptr %6, align 8, !tbaa !34
  %7 = load ptr, ptr %4, align 8, !tbaa !290
  %8 = load ptr, ptr %5, align 8, !tbaa !250
  %9 = load i64, ptr %6, align 8, !tbaa !34
  call void @_ZNSt15__new_allocatorIfE10deallocateEPfm(ptr noundef nonnull align 1 dereferenceable(1) %7, ptr noundef %8, i64 noundef %9)
  ret void
}

; Function Attrs: mustprogress nounwind uwtable
define linkonce_odr void @_ZNSt12_Destroy_auxILb1EE9__destroyIPfEEvT_S3_(ptr noundef %0, ptr noundef %1) #4 comdat align 2 {
  %3 = alloca ptr, align 8
  %4 = alloca ptr, align 8
  store ptr %0, ptr %3, align 8, !tbaa !250
  store ptr %1, ptr %4, align 8, !tbaa !250
  ret void
}

; Function Attrs: mustprogress nounwind uwtable
define linkonce_odr void @_ZNSt12_Vector_baseIfSaIfEE17_Vector_impl_dataC2Ev(ptr noundef nonnull align 8 dereferenceable(24) %0) unnamed_addr #4 comdat align 2 {
  %2 = alloca ptr, align 8
  store ptr %0, ptr %2, align 8, !tbaa !277
  %3 = load ptr, ptr %2, align 8
  %4 = getelementptr inbounds nuw %"struct.std::_Vector_base<float, std::allocator<float>>::_Vector_impl_data", ptr %3, i32 0, i32 0
  store ptr null, ptr %4, align 8, !tbaa !279
  %5 = getelementptr inbounds nuw %"struct.std::_Vector_base<float, std::allocator<float>>::_Vector_impl_data", ptr %3, i32 0, i32 1
  store ptr null, ptr %5, align 8, !tbaa !281
  %6 = getelementptr inbounds nuw %"struct.std::_Vector_base<float, std::allocator<float>>::_Vector_impl_data", ptr %3, i32 0, i32 2
  store ptr null, ptr %6, align 8, !tbaa !282
  ret void
}

; Function Attrs: mustprogress nounwind uwtable
define linkonce_odr void @_ZNSaIfEC2Ev(ptr noundef nonnull align 1 dereferenceable(1) %0) unnamed_addr #4 comdat align 2 {
  %2 = alloca ptr, align 8
  store ptr %0, ptr %2, align 8, !tbaa !290
  %3 = load ptr, ptr %2, align 8
  call void @_ZNSt15__new_allocatorIfEC2Ev(ptr noundef nonnull align 1 dereferenceable(1) %3) #3
  ret void
}

; Function Attrs: mustprogress nounwind uwtable
define linkonce_odr void @_ZNSt15__new_allocatorIfED2Ev(ptr noundef nonnull align 1 dereferenceable(1) %0) unnamed_addr #4 comdat align 2 {
  %2 = alloca ptr, align 8
  store ptr %0, ptr %2, align 8, !tbaa !283
  ret void
}

; Function Attrs: mustprogress uwtable
define linkonce_odr void @_ZNSt12_Vector_baseIfSaIfEE13_M_deallocateEPfm(ptr noundef nonnull align 8 dereferenceable(24) %0, ptr noundef %1, i64 noundef %2) #7 comdat align 2 {
  %4 = alloca ptr, align 8
  %5 = alloca ptr, align 8
  %6 = alloca i64, align 8
  store ptr %0, ptr %4, align 8, !tbaa !273
  store ptr %1, ptr %5, align 8, !tbaa !250
  store i64 %2, ptr %6, align 8, !tbaa !34
  %7 = load ptr, ptr %4, align 8
  %8 = load ptr, ptr %5, align 8, !tbaa !250
  %9 = icmp ne ptr %8, null
  br i1 %9, label %10, label %14

10:                                               ; preds = %3
  %11 = getelementptr inbounds nuw %"struct.std::_Vector_base.23", ptr %7, i32 0, i32 0
  %12 = load ptr, ptr %5, align 8, !tbaa !250
  %13 = load i64, ptr %6, align 8, !tbaa !34
  call void @_ZNSt16allocator_traitsISaIfEE10deallocateERS0_Pfm(ptr noundef nonnull align 1 dereferenceable(1) %11, ptr noundef %12, i64 noundef %13)
  br label %14

14:                                               ; preds = %10, %3
  ret void
}

; Function Attrs: inlinehint mustprogress uwtable
define linkonce_odr void @_ZSt8_DestroyIPfEvT_S1_(ptr noundef %0, ptr noundef %1) #5 comdat {
  %3 = alloca ptr, align 8
  %4 = alloca ptr, align 8
  store ptr %0, ptr %3, align 8, !tbaa !250
  store ptr %1, ptr %4, align 8, !tbaa !250
  %5 = load ptr, ptr %3, align 8, !tbaa !250
  %6 = load ptr, ptr %4, align 8, !tbaa !250
  call void @_ZNSt12_Destroy_auxILb1EE9__destroyIPfEEvT_S3_(ptr noundef %5, ptr noundef %6)
  ret void
}

; Function Attrs: mustprogress nounwind uwtable
define linkonce_odr void @_ZNSt12_Vector_baseIfSaIfEE12_Vector_implC2Ev(ptr noundef nonnull align 8 dereferenceable(24) %0) unnamed_addr #4 comdat align 2 {
  %2 = alloca ptr, align 8
  store ptr %0, ptr %2, align 8, !tbaa !275
  %3 = load ptr, ptr %2, align 8
  call void @_ZNSaIfEC2Ev(ptr noundef nonnull align 1 dereferenceable(1) %3) #3
  call void @_ZNSt12_Vector_baseIfSaIfEE17_Vector_impl_dataC2Ev(ptr noundef nonnull align 8 dereferenceable(24) %3) #3
  ret void
}

; Function Attrs: noinline noreturn nounwind uwtable
define linkonce_odr hidden void @__clang_call_terminate(ptr noundef %0) #8 comdat {
  %2 = call ptr @__cxa_begin_catch(ptr %0) #3
  call void @_ZSt9terminatev() #31
  unreachable
}

; Function Attrs: mustprogress nounwind uwtable
define linkonce_odr void @_ZNSt12_Vector_baseIfSaIfEED2Ev(ptr noundef nonnull align 8 dereferenceable(24) %0) unnamed_addr #4 comdat align 2 personality ptr @__gxx_personality_v0 {
  %2 = alloca ptr, align 8
  store ptr %0, ptr %2, align 8, !tbaa !273
  %3 = load ptr, ptr %2, align 8
  %4 = getelementptr inbounds nuw %"struct.std::_Vector_base.23", ptr %3, i32 0, i32 0
  %5 = getelementptr inbounds nuw %"struct.std::_Vector_base<float, std::allocator<float>>::_Vector_impl_data", ptr %4, i32 0, i32 0
  %6 = load ptr, ptr %5, align 8, !tbaa !279
  %7 = getelementptr inbounds nuw %"struct.std::_Vector_base.23", ptr %3, i32 0, i32 0
  %8 = getelementptr inbounds nuw %"struct.std::_Vector_base<float, std::allocator<float>>::_Vector_impl_data", ptr %7, i32 0, i32 2
  %9 = load ptr, ptr %8, align 8, !tbaa !282
  %10 = getelementptr inbounds nuw %"struct.std::_Vector_base.23", ptr %3, i32 0, i32 0
  %11 = getelementptr inbounds nuw %"struct.std::_Vector_base<float, std::allocator<float>>::_Vector_impl_data", ptr %10, i32 0, i32 0
  %12 = load ptr, ptr %11, align 8, !tbaa !279
  %13 = ptrtoint ptr %9 to i64
  %14 = ptrtoint ptr %12 to i64
  %15 = sub i64 %13, %14
  %16 = sdiv exact i64 %15, 4
  invoke void @_ZNSt12_Vector_baseIfSaIfEE13_M_deallocateEPfm(ptr noundef nonnull align 8 dereferenceable(24) %3, ptr noundef %6, i64 noundef %16)
          to label %17 unwind label %19

17:                                               ; preds = %1
  %18 = getelementptr inbounds nuw %"struct.std::_Vector_base.23", ptr %3, i32 0, i32 0
  call void @_ZNSt15__new_allocatorIfED2Ev(ptr noundef nonnull align 8 dereferenceable(24) %18) #3
  ret void

19:                                               ; preds = %1
  %20 = landingpad { ptr, i32 }
          catch ptr null
  %21 = extractvalue { ptr, i32 } %20, 0
  call void @__clang_call_terminate(ptr %21) #31
  unreachable
}

; Function Attrs: inlinehint mustprogress uwtable
define linkonce_odr void @_ZSt8_DestroyIPffEvT_S1_RSaIT0_E(ptr noundef %0, ptr noundef %1, ptr noundef nonnull align 1 dereferenceable(1) %2) #5 comdat {
  %4 = alloca ptr, align 8
  %5 = alloca ptr, align 8
  %6 = alloca ptr, align 8
  store ptr %0, ptr %4, align 8, !tbaa !250
  store ptr %1, ptr %5, align 8, !tbaa !250
  store ptr %2, ptr %6, align 8, !tbaa !290
  %7 = load ptr, ptr %4, align 8, !tbaa !250
  %8 = load ptr, ptr %5, align 8, !tbaa !250
  call void @_ZSt8_DestroyIPfEvT_S1_(ptr noundef %7, ptr noundef %8)
  ret void
}

; Function Attrs: mustprogress nounwind uwtable
define linkonce_odr noundef nonnull align 1 dereferenceable(1) ptr @_ZNSt12_Vector_baseIfSaIfEE19_M_get_Tp_allocatorEv(ptr noundef nonnull align 8 dereferenceable(24) %0) #4 comdat align 2 {
  %2 = alloca ptr, align 8
  store ptr %0, ptr %2, align 8, !tbaa !273
  %3 = load ptr, ptr %2, align 8
  %4 = getelementptr inbounds nuw %"struct.std::_Vector_base.23", ptr %3, i32 0, i32 0
  ret ptr %4
}

; Function Attrs: mustprogress nounwind uwtable
define linkonce_odr void @_ZNSt12_Vector_baseIfSaIfEEC2Ev(ptr noundef nonnull align 8 dereferenceable(24) %0) unnamed_addr #4 comdat align 2 {
  %2 = alloca ptr, align 8
  store ptr %0, ptr %2, align 8, !tbaa !273
  %3 = load ptr, ptr %2, align 8
  %4 = getelementptr inbounds nuw %"struct.std::_Vector_base.23", ptr %3, i32 0, i32 0
  call void @_ZNSt12_Vector_baseIfSaIfEE12_Vector_implC2Ev(ptr noundef nonnull align 8 dereferenceable(24) %4) #3
  ret void
}

; Function Attrs: mustprogress nounwind uwtable
define linkonce_odr void @_ZNSt6vectorIfSaIfEED2Ev(ptr noundef nonnull align 8 dereferenceable(24) %0) unnamed_addr #4 comdat align 2 personality ptr @__gxx_personality_v0 {
  %2 = alloca ptr, align 8
  store ptr %0, ptr %2, align 8, !tbaa !261
  %3 = load ptr, ptr %2, align 8
  %4 = getelementptr inbounds nuw %"struct.std::_Vector_base.23", ptr %3, i32 0, i32 0
  %5 = getelementptr inbounds nuw %"struct.std::_Vector_base<float, std::allocator<float>>::_Vector_impl_data", ptr %4, i32 0, i32 0
  %6 = load ptr, ptr %5, align 8, !tbaa !279
  %7 = getelementptr inbounds nuw %"struct.std::_Vector_base.23", ptr %3, i32 0, i32 0
  %8 = getelementptr inbounds nuw %"struct.std::_Vector_base<float, std::allocator<float>>::_Vector_impl_data", ptr %7, i32 0, i32 1
  %9 = load ptr, ptr %8, align 8, !tbaa !281
  %10 = call noundef nonnull align 1 dereferenceable(1) ptr @_ZNSt12_Vector_baseIfSaIfEE19_M_get_Tp_allocatorEv(ptr noundef nonnull align 8 dereferenceable(24) %3) #3
  invoke void @_ZSt8_DestroyIPffEvT_S1_RSaIT0_E(ptr noundef %6, ptr noundef %9, ptr noundef nonnull align 1 dereferenceable(1) %10)
          to label %11 unwind label %12

11:                                               ; preds = %1
  call void @_ZNSt12_Vector_baseIfSaIfEED2Ev(ptr noundef nonnull align 8 dereferenceable(24) %3) #3
  ret void

12:                                               ; preds = %1
  %13 = landingpad { ptr, i32 }
          catch ptr null
  %14 = extractvalue { ptr, i32 } %13, 0
  call void @__clang_call_terminate(ptr %14) #31
  unreachable
}

; Function Attrs: mustprogress nounwind uwtable
define linkonce_odr void @_ZNSt6vectorIfSaIfEEC2Ev(ptr noundef nonnull align 8 dereferenceable(24) %0) unnamed_addr #4 comdat align 2 {
  %2 = alloca ptr, align 8
  store ptr %0, ptr %2, align 8, !tbaa !261
  %3 = load ptr, ptr %2, align 8
  call void @_ZNSt12_Vector_baseIfSaIfEEC2Ev(ptr noundef nonnull align 8 dereferenceable(24) %3) #3
  ret void
}

; Function Attrs: inlinehint mustprogress nounwind uwtable
define linkonce_odr void @_ZN7xgboost6common15ParamFloatArrayD2Ev(ptr noundef nonnull align 8 dereferenceable(24) %0) unnamed_addr #12 comdat align 2 {
  %2 = alloca ptr, align 8
  store ptr %0, ptr %2, align 8, !tbaa !271
  %3 = load ptr, ptr %2, align 8
  %4 = getelementptr inbounds nuw %"class.xgboost::common::ParamFloatArray", ptr %3, i32 0, i32 0
  call void @_ZNSt6vectorIfSaIfEED2Ev(ptr noundef nonnull align 8 dereferenceable(24) %4) #3
  ret void
}

; Function Attrs: mustprogress nounwind uwtable
define linkonce_odr void @_ZN7xgboost9DeviceOrdC2ENS0_4TypeEs(ptr noundef nonnull align 2 dereferenceable(4) %0, i16 noundef signext %1, i16 noundef signext %2) unnamed_addr #4 comdat align 2 {
  %4 = alloca ptr, align 8
  %5 = alloca i16, align 2
  %6 = alloca i16, align 2
  store ptr %0, ptr %4, align 8, !tbaa !285
  store i16 %1, ptr %5, align 2, !tbaa !245
  store i16 %2, ptr %6, align 2, !tbaa !247
  %7 = load ptr, ptr %4, align 8
  %8 = getelementptr inbounds nuw %"struct.xgboost::DeviceOrd", ptr %7, i32 0, i32 0
  %9 = load i16, ptr %5, align 2, !tbaa !245
  store i16 %9, ptr %8, align 2, !tbaa !287
  %10 = getelementptr inbounds nuw %"struct.xgboost::DeviceOrd", ptr %7, i32 0, i32 1
  %11 = load i16, ptr %6, align 2, !tbaa !247
  store i16 %11, ptr %10, align 2, !tbaa !289
  ret void
}

; Function Attrs: mustprogress nounwind uwtable
define linkonce_odr noundef signext i16 @_ZN7xgboost9DeviceOrd10CPUOrdinalEv() #4 comdat align 2 {
  ret i16 -1
}

; Function Attrs: inlinehint mustprogress nounwind uwtable
define linkonce_odr void @_ZN7xgboost6common15ParamFloatArrayC2Ev(ptr noundef nonnull align 8 dereferenceable(24) %0) unnamed_addr #12 comdat align 2 {
  %2 = alloca ptr, align 8
  store ptr %0, ptr %2, align 8, !tbaa !271
  %3 = load ptr, ptr %2, align 8
  %4 = getelementptr inbounds nuw %"class.xgboost::common::ParamFloatArray", ptr %3, i32 0, i32 0
  call void @_ZNSt6vectorIfSaIfEEC2Ev(ptr noundef nonnull align 8 dereferenceable(24) %4) #3
  ret void
}

; Function Attrs: inlinehint mustprogress nounwind uwtable
define linkonce_odr void @_ZN7xgboost16XGBoostParameterINS_6common17QuantileLossParamEEC2Ev(ptr noundef nonnull align 1 dereferenceable(1) %0) unnamed_addr #12 comdat align 2 {
  %2 = alloca ptr, align 8
  store ptr %0, ptr %2, align 8, !tbaa !267
  %3 = load ptr, ptr %2, align 8
  %4 = getelementptr inbounds nuw %"struct.xgboost::XGBoostParameter", ptr %3, i32 0, i32 0
  store i8 0, ptr %4, align 1, !tbaa !269
  ret void
}

; Function Attrs: inlinehint mustprogress nounwind uwtable
define linkonce_odr void @_ZN7xgboost12ConfigurableC2Ev(ptr noundef nonnull align 8 dereferenceable(8) %0) unnamed_addr #12 comdat align 2 {
  %2 = alloca ptr, align 8
  store ptr %0, ptr %2, align 8, !tbaa !204
  %3 = load ptr, ptr %2, align 8
  store ptr getelementptr inbounds inrange(-16, 32) ({ [6 x ptr] }, ptr @_ZTVN7xgboost12ConfigurableE, i32 0, i32 0, i32 2), ptr %3, align 8, !tbaa !198
  ret void
}

; Function Attrs: mustprogress nounwind uwtable
define linkonce_odr void @_ZN7xgboost12ConfigurableD2Ev(ptr noundef nonnull align 8 dereferenceable(8) %0) unnamed_addr #4 comdat align 2 {
  %2 = alloca ptr, align 8
  store ptr %0, ptr %2, align 8, !tbaa !204
  ret void
}

; Function Attrs: inlinehint mustprogress nounwind uwtable
define linkonce_odr void @_ZN7xgboost6common17QuantileLossParamD2Ev(ptr noundef nonnull align 8 dereferenceable(32) %0) unnamed_addr #12 comdat align 2 {
  %2 = alloca ptr, align 8
  store ptr %0, ptr %2, align 8, !tbaa !202
  %3 = load ptr, ptr %2, align 8
  %4 = getelementptr inbounds nuw %"struct.xgboost::common::QuantileLossParam", ptr %3, i32 0, i32 1
  call void @_ZN7xgboost6common15ParamFloatArrayD2Ev(ptr noundef nonnull align 8 dereferenceable(24) %4) #3
  ret void
}

; Function Attrs: mustprogress uwtable
define linkonce_odr i32 @_ZN7xgboost9DeviceOrd3CPUEv() #7 comdat align 2 {
  %1 = alloca %"struct.xgboost::DeviceOrd", align 2
  %2 = call noundef signext i16 @_ZN7xgboost9DeviceOrd10CPUOrdinalEv()
  call void @_ZN7xgboost9DeviceOrdC2ENS0_4TypeEs(ptr noundef nonnull align 2 dereferenceable(4) %1, i16 noundef signext 0, i16 noundef signext %2)
  %3 = load i32, ptr %1, align 2
  ret i32 %3
}

; Function Attrs: inlinehint mustprogress nounwind uwtable
define linkonce_odr void @_ZN7xgboost6common17QuantileLossParamC2Ev(ptr noundef nonnull align 8 dereferenceable(32) %0) unnamed_addr #12 comdat align 2 {
  %2 = alloca ptr, align 8
  store ptr %0, ptr %2, align 8, !tbaa !202
  %3 = load ptr, ptr %2, align 8
  call void @_ZN7xgboost16XGBoostParameterINS_6common17QuantileLossParamEEC2Ev(ptr noundef nonnull align 1 dereferenceable(1) %3) #3
  %4 = getelementptr inbounds nuw %"struct.xgboost::common::QuantileLossParam", ptr %3, i32 0, i32 1
  call void @_ZN7xgboost6common15ParamFloatArrayC2Ev(ptr noundef nonnull align 8 dereferenceable(24) %4) #3
  ret void
}

; Function Attrs: inlinehint mustprogress nounwind uwtable
define linkonce_odr void @_ZN7xgboost11ObjFunctionC2Ev(ptr noundef nonnull align 8 dereferenceable(16) %0) unnamed_addr #12 comdat align 2 {
  %2 = alloca ptr, align 8
  store ptr %0, ptr %2, align 8, !tbaa !200
  %3 = load ptr, ptr %2, align 8
  call void @_ZN7xgboost12ConfigurableC2Ev(ptr noundef nonnull align 8 dereferenceable(8) %3) #3
  store ptr getelementptr inbounds inrange(-16, 120) ({ [17 x ptr] }, ptr @_ZTVN7xgboost11ObjFunctionE, i32 0, i32 0, i32 2), ptr %3, align 8, !tbaa !198
  ret void
}

; Function Attrs: inlinehint mustprogress uwtable
define linkonce_odr void @_ZN7xgboost3obj18QuantileRegressionC2Ev(ptr noundef nonnull align 8 dereferenceable(56) %0) unnamed_addr #5 comdat align 2 personality ptr @__gxx_personality_v0 {
  %2 = alloca ptr, align 8
  %3 = alloca %"struct.xgboost::DeviceOrd", align 2
  %4 = alloca ptr, align 8
  %5 = alloca i32, align 4
  store ptr %0, ptr %2, align 8, !tbaa !196
  %6 = load ptr, ptr %2, align 8
  call void @_ZN7xgboost11ObjFunctionC2Ev(ptr noundef nonnull align 8 dereferenceable(16) %6) #3
  store ptr getelementptr inbounds inrange(-16, 120) ({ [17 x ptr] }, ptr @_ZTVN7xgboost3obj18QuantileRegressionE, i32 0, i32 0, i32 2), ptr %6, align 8, !tbaa !198
  %7 = getelementptr inbounds nuw %"class.xgboost::obj::QuantileRegression", ptr %6, i32 0, i32 1
  call void @_ZN7xgboost6common17QuantileLossParamC2Ev(ptr noundef nonnull align 8 dereferenceable(32) %7) #3
  %8 = getelementptr inbounds nuw %"class.xgboost::obj::QuantileRegression", ptr %6, i32 0, i32 2
  %9 = invoke i32 @_ZN7xgboost9DeviceOrd3CPUEv()
          to label %10 unwind label %13

10:                                               ; preds = %1
  store i32 %9, ptr %3, align 2
  %11 = load i32, ptr %3, align 2
  invoke void @_ZN7xgboost16HostDeviceVectorIfEC1EmfNS_9DeviceOrdE(ptr noundef nonnull align 8 dereferenceable(8) %8, i64 noundef 0, float noundef 0.000000e+00, i32 %11)
          to label %12 unwind label %13

12:                                               ; preds = %10
  ret void

13:                                               ; preds = %10, %1
  %14 = landingpad { ptr, i32 }
          cleanup
  %15 = extractvalue { ptr, i32 } %14, 0
  store ptr %15, ptr %4, align 8
  %16 = extractvalue { ptr, i32 } %14, 1
  store i32 %16, ptr %5, align 4
  call void @_ZN7xgboost6common17QuantileLossParamD2Ev(ptr noundef nonnull align 8 dereferenceable(32) %7) #3
  call void @_ZN7xgboost12ConfigurableD2Ev(ptr noundef nonnull align 8 dereferenceable(16) %6) #3
  br label %17

17:                                               ; preds = %13
  %18 = load ptr, ptr %4, align 8
  %19 = load i32, ptr %5, align 4
  %20 = insertvalue { ptr, i32 } poison, ptr %18, 0
  %21 = insertvalue { ptr, i32 } %20, i32 %19, 1
  resume { ptr, i32 } %21
}

; Function Attrs: inlinehint mustprogress uwtable
define internal noundef ptr @"_ZNK7xgboost3obj3$_0clEv"(ptr noundef nonnull align 1 dereferenceable(1) %0) #5 align 2 personality ptr @__gxx_personality_v0 {
  %2 = alloca ptr, align 8
  %3 = alloca ptr, align 8
  %4 = alloca i32, align 4
  store ptr %0, ptr %2, align 8, !tbaa !20
  %5 = call noalias noundef nonnull ptr @_Znwm(i64 noundef 56) #29
  call void @llvm.memset.p0.i64(ptr align 16 %5, i8 0, i64 56, i1 false)
  invoke void @_ZN7xgboost3obj18QuantileRegressionC2Ev(ptr noundef nonnull align 8 dereferenceable(56) %5)
          to label %6 unwind label %7

6:                                                ; preds = %1
  ret ptr %5

7:                                                ; preds = %1
  %8 = landingpad { ptr, i32 }
          cleanup
  %9 = extractvalue { ptr, i32 } %8, 0
  store ptr %9, ptr %3, align 8
  %10 = extractvalue { ptr, i32 } %8, 1
  store i32 %10, ptr %4, align 4
  call void @_ZdlPvm(ptr noundef %5, i64 noundef 56) #32
  br label %11

11:                                               ; preds = %7
  %12 = load ptr, ptr %3, align 8
  %13 = load i32, ptr %4, align 4
  %14 = insertvalue { ptr, i32 } poison, ptr %12, 0
  %15 = insertvalue { ptr, i32 } %14, i32 %13, 1
  resume { ptr, i32 } %15
}

; Function Attrs: mustprogress nounwind uwtable
define linkonce_odr noundef ptr @_ZNKSt9_Any_data9_M_accessEv(ptr noundef nonnull align 8 dereferenceable(16) %0) #4 comdat align 2 {
  %2 = alloca ptr, align 8
  store ptr %0, ptr %2, align 8, !tbaa !188
  %3 = load ptr, ptr %2, align 8
  %4 = getelementptr inbounds [16 x i8], ptr %3, i64 0, i64 0
  ret ptr %4
}

; Function Attrs: mustprogress uwtable
define internal noundef ptr @"_ZSt13__invoke_implIPN7xgboost3obj18QuantileRegressionERNS1_3$_0EJEET_St14__invoke_otherOT0_DpOT1_"(ptr noundef nonnull align 1 dereferenceable(1) %0) #7 {
  %2 = alloca ptr, align 8
  store ptr %0, ptr %2, align 8, !tbaa !20
  %3 = load ptr, ptr %2, align 8, !tbaa !20
  %4 = call noundef ptr @"_ZNK7xgboost3obj3$_0clEv"(ptr noundef nonnull align 1 dereferenceable(1) %3)
  ret ptr %4
}

; Function Attrs: mustprogress nounwind uwtable
define internal noundef nonnull align 1 dereferenceable(1) ptr @"_ZNKSt9_Any_data9_M_accessIN7xgboost3obj3$_0EEERKT_v"(ptr noundef nonnull align 8 dereferenceable(16) %0) #4 align 2 {
  %2 = alloca ptr, align 8
  store ptr %0, ptr %2, align 8, !tbaa !188
  %3 = load ptr, ptr %2, align 8
  %4 = call noundef ptr @_ZNKSt9_Any_data9_M_accessEv(ptr noundef nonnull align 8 dereferenceable(16) %3) #3
  ret ptr %4
}

; Function Attrs: mustprogress uwtable
define internal noundef ptr @"_ZSt10__invoke_rIPN7xgboost11ObjFunctionERNS0_3obj3$_0EJEENSt9enable_ifIX16is_invocable_r_vIT_T0_DpT1_EES7_E4typeEOS8_DpOS9_"(ptr noundef nonnull align 1 dereferenceable(1) %0) #7 {
  %2 = alloca ptr, align 8
  store ptr %0, ptr %2, align 8, !tbaa !20
  %3 = load ptr, ptr %2, align 8, !tbaa !20
  %4 = call noundef ptr @"_ZSt13__invoke_implIPN7xgboost3obj18QuantileRegressionERNS1_3$_0EJEET_St14__invoke_otherOT0_DpOT1_"(ptr noundef nonnull align 1 dereferenceable(1) %3)
  ret ptr %4
}

; Function Attrs: mustprogress nounwind uwtable
define internal noundef ptr @"_ZNSt14_Function_base13_Base_managerIN7xgboost3obj3$_0EE14_M_get_pointerERKSt9_Any_data"(ptr noundef nonnull align 8 dereferenceable(16) %0) #4 align 2 {
  %2 = alloca ptr, align 8
  %3 = alloca ptr, align 8
  store ptr %0, ptr %2, align 8, !tbaa !188
  call void @llvm.lifetime.start.p0(i64 8, ptr %3) #3
  %4 = load ptr, ptr %2, align 8, !tbaa !188
  %5 = call noundef nonnull align 1 dereferenceable(1) ptr @"_ZNKSt9_Any_data9_M_accessIN7xgboost3obj3$_0EEERKT_v"(ptr noundef nonnull align 8 dereferenceable(16) %4) #3
  store ptr %5, ptr %3, align 8, !tbaa !20
  %6 = load ptr, ptr %3, align 8, !tbaa !20
  call void @llvm.lifetime.end.p0(i64 8, ptr %3) #3
  ret ptr %6
}

; Function Attrs: mustprogress uwtable
define internal noundef ptr @"_ZNSt17_Function_handlerIFPN7xgboost11ObjFunctionEvENS0_3obj3$_0EE9_M_invokeERKSt9_Any_data"(ptr noundef nonnull align 8 dereferenceable(16) %0) #7 align 2 {
  %2 = alloca ptr, align 8
  store ptr %0, ptr %2, align 8, !tbaa !188
  %3 = load ptr, ptr %2, align 8, !tbaa !188
  %4 = call noundef ptr @"_ZNSt14_Function_base13_Base_managerIN7xgboost3obj3$_0EE14_M_get_pointerERKSt9_Any_data"(ptr noundef nonnull align 8 dereferenceable(16) %3) #3
  %5 = call noundef ptr @"_ZSt10__invoke_rIPN7xgboost11ObjFunctionERNS0_3obj3$_0EJEENSt9enable_ifIX16is_invocable_r_vIT_T0_DpT1_EES7_E4typeEOS8_DpOS9_"(ptr noundef nonnull align 1 dereferenceable(1) %4)
  ret ptr %5
}