; Function Attrs: mustprogress uwtable
define internal noundef nonnull ptr @"_ZNSt17_Function_handlerIFPN7xgboost11ObjFunctionEvENS0_3obj3$_0EE9_M_invokeERKSt9_Any_data"(ptr nonnull readnone align 8 captures(none) %0) #12 align 2 personality ptr @__gxx_personality_v0 {
  %2 = tail call noalias noundef nonnull dereferenceable(56) ptr @_Znwm(i64 noundef 56) #36
  tail call void @llvm.memset.p0.i64(ptr noundef nonnull align 16 dereferenceable(56) %2, i8 0, i64 56, i1 false)
  store ptr getelementptr inbounds nuw inrange(-16, 120) (i8, ptr @_ZTVN7xgboost3obj18QuantileRegressionE, i64 16), ptr %2, align 8, !tbaa !49
  %3 = getelementptr inbounds nuw i8, ptr %2, i64 24
  tail call void @llvm.memset.p0.i64(ptr noundef nonnull align 8 dereferenceable(24) %3, i8 0, i64 24, i1 false)
  %4 = getelementptr inbounds nuw i8, ptr %2, i64 48
  invoke void @_ZN7xgboost16HostDeviceVectorIfEC1EmfNS_9DeviceOrdE(ptr noundef nonnull align 8 dereferenceable(8) %4, i64 noundef 0, float noundef 0.000000e+00, i32 -65536)
          to label %"_ZSt10__invoke_rIPN7xgboost11ObjFunctionERNS0_3obj3$_0EJEENSt9enable_ifIX16is_invocable_r_vIT_T0_DpT1_EES7_E4typeEOS8_DpOS9_.exit" unwind label %5

5:                                                ; preds = %1
  %6 = landingpad { ptr, i32 }
          cleanup
  %7 = load ptr, ptr %3, align 8, !tbaa !51
  %.not.i.i.i.i.i.i.i.i.i = icmp eq ptr %7, null
  br i1 %.not.i.i.i.i.i.i.i.i.i, label %.body.i.i.i, label %8

8:                                                ; preds = %5
  %9 = getelementptr inbounds nuw i8, ptr %2, i64 40
  %10 = load ptr, ptr %9, align 8, !tbaa !54
  %11 = ptrtoint ptr %10 to i64
  %12 = ptrtoint ptr %7 to i64
  %13 = sub i64 %11, %12
  tail call void @_ZdlPvm(ptr noundef nonnull %7, i64 noundef %13) #37
  br label %.body.i.i.i

.body.i.i.i:                                      ; preds = %8, %5
  tail call void @_ZdlPvm(ptr noundef nonnull %2, i64 noundef 56) #37
  resume { ptr, i32 } %6

"_ZSt10__invoke_rIPN7xgboost11ObjFunctionERNS0_3obj3$_0EJEENSt9enable_ifIX16is_invocable_r_vIT_T0_DpT1_EES7_E4typeEOS8_DpOS9_.exit": ; preds = %1
  ret ptr %2
}